(dp1
S'youtube_resolver'
p2
ccopy_reg
_reconstructor
p3
(ctwisted.plugin
CachedDropin
p4
c__builtin__
object
p5
NtRp6
(dp7
S'moduleName'
p8
S'plugins.youtube_resolver'
p9
sS'description'
p10
NsS'plugins'
p11
(lp12
g3
(ctwisted.plugin
CachedPlugin
p13
g5
NtRp14
(dp15
S'provided'
p16
(lp17
ctwisted.plugin
IPlugin
p18
acIMessage
IMessage
p19
asS'dropin'
p20
g6
sS'name'
p21
S'm'
sg10
NsbasbsS'database_logger'
p22
g3
(g4
g5
NtRp23
(dp24
g8
S'plugins.database_logger'
p25
sg10
Nsg11
(lp26
g3
(g13
g5
NtRp27
(dp28
g16
(lp29
g18
ag19
asg20
g23
sg21
S'm'
sg10
NsbasbsS'duplicate_message'
p30
g3
(g4
g5
NtRp31
(dp32
g8
S'plugins.duplicate_message'
p33
sg10
Nsg11
(lp34
g3
(g13
g5
NtRp35
(dp36
g16
(lp37
g18
ag19
asg20
g31
sg21
S'm'
sg10
Nsbasbs.